; Function Attrs: mustprogress uwtable
define internal noundef i32 @_ZN12_GLOBAL__N_118TryCompileLangPropERN16cmCoreTryCompile9ArgumentsESt17basic_string_viewIcSt11char_traitsIcEES6_(ptr noundef nonnull align 8 dereferenceable(1040) %0, i64 %1, ptr %2, i64 %3, ptr %4) #3 personality ptr @__gxx_personality_v0 {
  %6 = alloca %"struct.std::__cxx11::basic_string<char>::__sv_wrapper", align 8
  %7 = alloca %"struct.std::__cxx11::basic_string<char>::__sv_wrapper", align 8
  %8 = alloca %"class.std::__cxx11::basic_string", align 8
  %9 = alloca %"class.std::allocator", align 1
  %10 = alloca %"class.std::__cxx11::basic_string", align 8
  %11 = alloca %"class.std::allocator", align 1
  call void @_ZNSaIcEC1Ev(ptr noundef nonnull align 1 dereferenceable(1) %9) #21
  call void @llvm.lifetime.start.p0(i64 16, ptr nonnull %7)
  %12 = call { i64, ptr } @_ZNSt7__cxx1112basic_stringIcSt11char_traitsIcESaIcEE17_S_to_string_viewESt17basic_string_viewIcS2_E(i64 %3, ptr %4) #21
  %13 = extractvalue { i64, ptr } %12, 0
  %14 = extractvalue { i64, ptr } %12, 1
  call void @_ZNSt7__cxx1112basic_stringIcSt11char_traitsIcESaIcEE12__sv_wrapperC1ESt17basic_string_viewIcS2_E(ptr noundef nonnull align 8 dereferenceable(16) %7, i64 %13, ptr %14) #21
  %15 = load i64, ptr %7, align 8
  %16 = getelementptr inbounds i8, ptr %7, i64 8
  %17 = load ptr, ptr %16, align 8
  invoke void @_ZNSt7__cxx1112basic_stringIcSt11char_traitsIcESaIcEEC2ENS4_12__sv_wrapperERKS3_(ptr noundef nonnull align 8 dereferenceable(32) %8, i64 %15, ptr %17, ptr noundef nonnull align 1 dereferenceable(1) %9)
          to label %18 unwind label %30

18:                                               ; preds = %5
  call void @llvm.lifetime.end.p0(i64 16, ptr nonnull %7)
  call void @_ZNSaIcEC1Ev(ptr noundef nonnull align 1 dereferenceable(1) %11) #21
  call void @llvm.lifetime.start.p0(i64 16, ptr nonnull %6)
  %19 = call { i64, ptr } @_ZNSt7__cxx1112basic_stringIcSt11char_traitsIcESaIcEE17_S_to_string_viewESt17basic_string_viewIcS2_E(i64 %1, ptr %2) #21
  %20 = extractvalue { i64, ptr } %19, 0
  %21 = extractvalue { i64, ptr } %19, 1
  call void @_ZNSt7__cxx1112basic_stringIcSt11char_traitsIcESaIcEE12__sv_wrapperC1ESt17basic_string_viewIcS2_E(ptr noundef nonnull align 8 dereferenceable(16) %6, i64 %20, ptr %21) #21
  %22 = load i64, ptr %6, align 8
  %23 = getelementptr inbounds i8, ptr %6, i64 8
  %24 = load ptr, ptr %23, align 8
  invoke void @_ZNSt7__cxx1112basic_stringIcSt11char_traitsIcESaIcEEC2ENS4_12__sv_wrapperERKS3_(ptr noundef nonnull align 8 dereferenceable(32) %10, i64 %22, ptr %24, ptr noundef nonnull align 1 dereferenceable(1) %11)
          to label %25 unwind label %32

25:                                               ; preds = %18
  call void @llvm.lifetime.end.p0(i64 16, ptr nonnull %6)
  %26 = getelementptr inbounds i8, ptr %0, i64 528
  %27 = invoke noundef nonnull align 8 dereferenceable(32) ptr @_ZNSt3mapINSt7__cxx1112basic_stringIcSt11char_traitsIcESaIcEEES5_St4lessIS5_ESaISt4pairIKS5_S5_EEEixEOS5_(ptr noundef nonnull align 8 dereferenceable(48) %26, ptr noundef nonnull align 8 dereferenceable(32) %10)
          to label %28 unwind label %34

28:                                               ; preds = %25
  %29 = call noundef nonnull align 8 dereferenceable(32) ptr @_ZNSt7__cxx1112basic_stringIcSt11char_traitsIcESaIcEEaSEOS4_(ptr noundef nonnull align 8 dereferenceable(32) %27, ptr noundef nonnull align 8 dereferenceable(32) %8) #21
  call void @_ZNSt7__cxx1112basic_stringIcSt11char_traitsIcESaIcEED1Ev(ptr noundef nonnull align 8 dereferenceable(32) %10) #21
  call void @_ZNSaIcED1Ev(ptr noundef nonnull align 1 dereferenceable(1) %11) #21
  call void @_ZNSt7__cxx1112basic_stringIcSt11char_traitsIcESaIcEED1Ev(ptr noundef nonnull align 8 dereferenceable(32) %8) #21
  call void @_ZNSaIcED1Ev(ptr noundef nonnull align 1 dereferenceable(1) %9) #21
  ret i32 0

30:                                               ; preds = %5
  %31 = landingpad { ptr, i32 }
          cleanup
  br label %37

32:                                               ; preds = %18
  %33 = landingpad { ptr, i32 }
          cleanup
  br label %36

34:                                               ; preds = %25
  %35 = landingpad { ptr, i32 }
          cleanup
  call void @_ZNSt7__cxx1112basic_stringIcSt11char_traitsIcESaIcEED1Ev(ptr noundef nonnull align 8 dereferenceable(32) %10) #21
  br label %36

36:                                               ; preds = %34, %32
  %.pn = phi { ptr, i32 } [ %35, %34 ], [ %33, %32 ]
  call void @_ZNSaIcED1Ev(ptr noundef nonnull align 1 dereferenceable(1) %11) #21
  call void @_ZNSt7__cxx1112basic_stringIcSt11char_traitsIcESaIcEED1Ev(ptr noundef nonnull align 8 dereferenceable(32) %8) #21
  br label %37

37:                                               ; preds = %36, %30
  %.pn.pn = phi { ptr, i32 } [ %.pn, %36 ], [ %31, %30 ]
  call void @_ZNSaIcED1Ev(ptr noundef nonnull align 1 dereferenceable(1) %9) #21
  resume { ptr, i32 } %.pn.pn
}